target datalayout = "e-m:e-p270:32:32-p271:32:32-p272:64:64-i64:64-i128:128-f80:128-n8:16:32:64-S128"
target triple = "x86_64-pc-linux-gnu"

@.str.106 = private unnamed_addr constant [30 x i8] c"../openssl/apps/fipsinstall.c\00", align 1
@.str.155 = private unnamed_addr constant [9 x i8] c"%s = %s\0A\00", align 1

; Function Attrs: nounwind uwtable
define internal i32 @print_mac(ptr noundef %0, ptr noundef %1, ptr noundef %2, i64 noundef %3) #0 {
  %5 = alloca i32, align 4
  %6 = alloca ptr, align 8
  %7 = alloca ptr, align 8
  %8 = alloca ptr, align 8
  %9 = alloca i64, align 8
  %10 = alloca i32, align 4
  %11 = alloca ptr, align 8
  %12 = alloca i32, align 4
  store ptr %0, ptr %6, align 8, !tbaa !13
  store ptr %1, ptr %7, align 8, !tbaa !11
  store ptr %2, ptr %8, align 8, !tbaa !11
  store i64 %3, ptr %9, align 8, !tbaa !19
  call void @llvm.lifetime.start.p0(i64 4, ptr %10) #6
  call void @llvm.lifetime.start.p0(i64 8, ptr %11) #6
  store ptr null, ptr %11, align 8, !tbaa !11
  %13 = load ptr, ptr %8, align 8, !tbaa !11
  %14 = load i64, ptr %9, align 8, !tbaa !19
  %15 = call ptr @OPENSSL_buf2hexstr(ptr noundef %13, i64 noundef %14)
  store ptr %15, ptr %11, align 8, !tbaa !11
  %16 = load ptr, ptr %11, align 8, !tbaa !11
  %17 = icmp eq ptr %16, null
  br i1 %17, label %18, label %19

18:                                               ; preds = %4
  store i32 0, ptr %5, align 4
  store i32 1, ptr %12, align 4
  br label %26

19:                                               ; preds = %4
  %20 = load ptr, ptr %6, align 8, !tbaa !13
  %21 = load ptr, ptr %7, align 8, !tbaa !11
  %22 = load ptr, ptr %11, align 8, !tbaa !11
  %23 = call i32 (ptr, ptr, ...) @BIO_printf(ptr noundef %20, ptr noundef @.str.155, ptr noundef %21, ptr noundef %22)
  store i32 %23, ptr %10, align 4, !tbaa !4
  %24 = load ptr, ptr %11, align 8, !tbaa !11
  call void @CRYPTO_free(ptr noundef %24, ptr noundef @.str.106, i32 noundef 344)
  %25 = load i32, ptr %10, align 4, !tbaa !4
  store i32 %25, ptr %5, align 4
  store i32 1, ptr %12, align 4
  br label %26

26:                                               ; preds = %19, %18
  call void @llvm.lifetime.end.p0(i64 8, ptr %11) #6
  call void @llvm.lifetime.end.p0(i64 4, ptr %10) #6
  %27 = load i32, ptr %5, align 4
  ret i32 %27
}