; Function Attrs: nounwind uwtable
define internal fastcc i32 @print_mac(ptr noundef nonnull %0, ptr noundef %1, ptr noundef nonnull %2, i64 noundef %3) unnamed_addr #0 {
  %5 = tail call ptr @OPENSSL_buf2hexstr(ptr noundef nonnull %2, i64 noundef %3) #6
  %6 = icmp eq ptr %5, null
  br i1 %6, label %9, label %7

7:                                                ; preds = %4
  %8 = tail call i32 (ptr, ptr, ...) @BIO_printf(ptr noundef nonnull %0, ptr noundef nonnull @.str.155, ptr noundef %1, ptr noundef nonnull %5) #6
  tail call void @CRYPTO_free(ptr noundef nonnull %5, ptr noundef nonnull @.str.106, i32 noundef 344) #6
  br label %9

9:                                                ; preds = %4, %7
  %.0 = phi i32 [ %8, %7 ], [ 0, %4 ]
  ret i32 %.0
}